; Function Attrs: mustprogress uwtable
define hidden noundef zeroext i1 @_ZN6google8protobuf2io16CodedInputStream10ReadStringEPNSt7__cxx1112basic_stringIcSt11char_traitsIcESaIcEEEi(ptr noundef nonnull align 8 captures(none) dereferenceable(80) %0, ptr noundef %1, i32 noundef %2) local_unnamed_addr #4 align 2 personality ptr @__gxx_personality_v0 {
  %4 = icmp slt i32 %2, 0
  br i1 %4, label %21, label %5

5:                                                ; preds = %3
  %6 = getelementptr inbounds nuw i8, ptr %0, i64 8
  %7 = load ptr, ptr %6, align 8, !tbaa !14
  %8 = load ptr, ptr %0, align 8, !tbaa !15
  %9 = ptrtoint ptr %7 to i64
  %10 = ptrtoint ptr %8 to i64
  %11 = sub i64 %9, %10
  %12 = trunc i64 %11 to i32
  %.not = icmp sgt i32 %2, %12
  br i1 %.not, label %19, label %13

13:                                               ; preds = %5
  %14 = zext nneg i32 %2 to i64
  tail call void @_ZNSt7__cxx1112basic_stringIcSt11char_traitsIcESaIcEE6resizeEmc(ptr noundef nonnull align 8 dereferenceable(32) %1, i64 noundef %14, i8 noundef signext 0)
  %15 = load ptr, ptr %1, align 8, !tbaa !36
  %16 = load ptr, ptr %0, align 8, !tbaa !15
  tail call void @llvm.memcpy.p0.p0.i64(ptr align 1 %15, ptr align 1 %16, i64 %14, i1 false)
  %17 = load ptr, ptr %0, align 8, !tbaa !15
  %18 = getelementptr inbounds nuw i8, ptr %17, i64 %14
  store ptr %18, ptr %0, align 8, !tbaa !15
  br label %21

19:                                               ; preds = %5
  %20 = tail call noundef zeroext i1 @_ZN6google8protobuf2io16CodedInputStream18ReadStringFallbackEPNSt7__cxx1112basic_stringIcSt11char_traitsIcESaIcEEEi(ptr noundef nonnull align 8 dereferenceable(80) %0, ptr noundef %1, i32 noundef %2)
  br label %21

21:                                               ; preds = %13, %3, %19
  %.0 = phi i1 [ %20, %19 ], [ false, %3 ], [ true, %13 ]
  ret i1 %.0
}